target datalayout = "e-m:e-p270:32:32-p271:32:32-p272:64:64-i64:64-i128:128-f80:128-n8:16:32:64-S128"
target triple = "x86_64-pc-linux-gnu"

%struct._dcerpc_info = type { ptr, i32, i64, i8, i8, i8, i32, i32, i32, i32, i32, i32, i32, i32, ptr, ptr, ptr, ptr, %struct.anon }
%struct.anon = type { i8, ptr, ptr, ptr, i8 }

@hf_srvsvc_sec_desc_buf_len = internal global i32 0, align 4
@hf_srvsvc_srvsvc_NetShareInfo_info1501 = internal global i32 0, align 4

; Function Attrs: null_pointer_is_valid sspstrong uwtable
define internal i32 @srvsvc_dissect_sec_desc_buf(ptr noundef %0, i32 noundef %1, ptr noundef %2, ptr noundef %3, ptr noundef %4, ptr noundef %5, i32 noundef %6) #0 {
  %8 = alloca i32, align 4
  %9 = alloca ptr, align 8
  %10 = alloca i32, align 4
  %11 = alloca ptr, align 8
  %12 = alloca ptr, align 8
  %13 = alloca ptr, align 8
  %14 = alloca ptr, align 8
  %15 = alloca i32, align 4
  %16 = alloca i32, align 4
  %17 = alloca i32, align 4
  store ptr %0, ptr %9, align 8
  store i32 %1, ptr %10, align 4
  store ptr %2, ptr %11, align 8
  store ptr %3, ptr %12, align 8
  store ptr %4, ptr %13, align 8
  store ptr %5, ptr %14, align 8
  store i32 %6, ptr %15, align 4
  call void @llvm.lifetime.start.p0(i64 4, ptr %16) #4
  %18 = load ptr, ptr %13, align 8
  %19 = getelementptr inbounds nuw %struct._dcerpc_info, ptr %18, i32 0, i32 4
  %20 = load i8, ptr %19, align 1, !range !6, !noundef !7
  %21 = trunc i8 %20 to i1
  br i1 %21, label %22, label %24

22:                                               ; preds = %7
  %23 = load i32, ptr %10, align 4
  store i32 %23, ptr %8, align 4
  store i32 1, ptr %17, align 4
  br label %44

24:                                               ; preds = %7
  %25 = load ptr, ptr %9, align 8
  %26 = load i32, ptr %10, align 4
  %27 = load ptr, ptr %11, align 8
  %28 = load ptr, ptr %12, align 8
  %29 = load ptr, ptr %13, align 8
  %30 = load ptr, ptr %14, align 8
  %31 = load i32, ptr @hf_srvsvc_sec_desc_buf_len, align 4
  %32 = call i32 @dissect_ndr_uint32(ptr noundef %25, i32 noundef %26, ptr noundef %27, ptr noundef %28, ptr noundef %29, ptr noundef %30, i32 noundef %31, ptr noundef %16)
  store i32 %32, ptr %10, align 4
  %33 = load ptr, ptr %9, align 8
  %34 = load i32, ptr %10, align 4
  %35 = load ptr, ptr %11, align 8
  %36 = load ptr, ptr %12, align 8
  %37 = load ptr, ptr %14, align 8
  %38 = load i32, ptr %16, align 4
  %39 = call i32 @dissect_nt_sec_desc(ptr noundef %33, i32 noundef %34, ptr noundef %35, ptr noundef %36, ptr noundef %37, i1 noundef zeroext true, i32 noundef %38, ptr noundef null)
  %40 = load i32, ptr %16, align 4
  %41 = load i32, ptr %10, align 4
  %42 = add i32 %41, %40
  store i32 %42, ptr %10, align 4
  %43 = load i32, ptr %10, align 4
  store i32 %43, ptr %8, align 4
  store i32 1, ptr %17, align 4
  br label %44

44:                                               ; preds = %24, %22
  call void @llvm.lifetime.end.p0(i64 4, ptr %16) #4
  %45 = load i32, ptr %8, align 4
  ret i32 %45
}

; Function Attrs: null_pointer_is_valid sspstrong uwtable
define internal i32 @srvsvc_dissect_element_NetShareInfo_info1501_(ptr noundef %0, i32 noundef %1, ptr noundef %2, ptr noundef %3, ptr noundef %4, ptr noundef %5) #0 {
  %7 = alloca ptr, align 8
  %8 = alloca i32, align 4
  %9 = alloca ptr, align 8
  %10 = alloca ptr, align 8
  %11 = alloca ptr, align 8
  %12 = alloca ptr, align 8
  store ptr %0, ptr %7, align 8
  store i32 %1, ptr %8, align 4
  store ptr %2, ptr %9, align 8
  store ptr %3, ptr %10, align 8
  store ptr %4, ptr %11, align 8
  store ptr %5, ptr %12, align 8
  %13 = load ptr, ptr %7, align 8
  %14 = load i32, ptr %8, align 4
  %15 = load ptr, ptr %9, align 8
  %16 = load ptr, ptr %10, align 8
  %17 = load ptr, ptr %11, align 8
  %18 = load ptr, ptr %12, align 8
  %19 = load i32, ptr @hf_srvsvc_srvsvc_NetShareInfo_info1501, align 4
  %20 = call i32 @srvsvc_dissect_sec_desc_buf(ptr noundef %13, i32 noundef %14, ptr noundef %15, ptr noundef %16, ptr noundef %17, ptr noundef %18, i32 noundef %19)
  ret i32 %20
}